; Function Attrs: mustprogress null_pointer_is_valid sspstrong uwtable
define void @_ZN9UatDialog17checkForErrorHintERK11QModelIndexS2_(ptr noundef readonly align 8 captures(none) dereferenceable_or_null(120) %0, ptr noundef align 8 dereferenceable(24) %1, ptr noundef align 8 dereferenceable(24) %2) local_unnamed_addr #0 align 2 {
  %4 = alloca %class.QModelIndex, align 8
  %5 = alloca %class.QModelIndex, align 8
  %6 = alloca %class.QModelIndex, align 8
  %7 = load i32, ptr %1, align 8
  %8 = icmp sgt i32 %7, -1
  %9 = getelementptr inbounds nuw i8, ptr %1, i64 4
  %10 = load i32, ptr %9, align 4
  %11 = icmp sgt i32 %10, -1
  %or.cond = select i1 %8, i1 %11, i1 false
  %12 = getelementptr inbounds nuw i8, ptr %1, i64 16
  %13 = load ptr, ptr %12, align 8
  %14 = icmp ne ptr %13, null
  %or.cond22 = select i1 %or.cond, i1 %14, i1 false
  br i1 %or.cond22, label %15, label %_ZNK11QModelIndex7isValidEv.exit.thread

15:                                               ; preds = %3
  %16 = tail call noundef zeroext i1 @_ZN9UatDialog24trySetErrorHintFromFieldERK11QModelIndex(ptr noundef align 8 dereferenceable_or_null(120) %0, ptr noundef align 8 dereferenceable(24) %1)
  br i1 %16, label %.thread, label %17

17:                                               ; preds = %15
  %18 = load i32, ptr %1, align 8
  %19 = load i32, ptr %2, align 8
  %20 = icmp eq i32 %18, %19
  br i1 %20, label %21, label %23

21:                                               ; preds = %17
  %22 = tail call noundef zeroext i1 @_ZN9UatDialog24trySetErrorHintFromFieldERK11QModelIndex(ptr noundef align 8 dereferenceable_or_null(120) %0, ptr noundef align 8 dereferenceable(24) %2)
  br i1 %22, label %.thread, label %23

23:                                               ; preds = %21, %17
  %24 = getelementptr inbounds nuw i8, ptr %0, i64 80
  %25 = getelementptr inbounds nuw i8, ptr %4, i64 4
  %26 = getelementptr inbounds nuw i8, ptr %4, i64 8
  %27 = load ptr, ptr %24, align 8
  call void @llvm.lifetime.start.p0(i64 24, ptr nonnull %4) #21
  store i32 -1, ptr %4, align 8
  store i32 -1, ptr %25, align 4
  call void @llvm.memset.p0.i64(ptr noundef nonnull align 8 dereferenceable(16) %26, i8 0, i64 16, i1 false)
  %28 = load ptr, ptr %27, align 8
  %29 = getelementptr inbounds nuw i8, ptr %28, i64 128
  %30 = load ptr, ptr %29, align 8
  %31 = call noundef i32 %30(ptr noundef align 8 dereferenceable_or_null(80) %27, ptr noundef nonnull align 8 dereferenceable(24) %4)
  %.not29 = icmp sgt i32 %31, 0
  call void @llvm.lifetime.end.p0(i64 24, ptr nonnull %4) #21
  br i1 %.not29, label %.lr.ph, label %_ZNK11QModelIndex7isValidEv.exit.thread

.lr.ph:                                           ; preds = %23
  %32 = getelementptr inbounds nuw i8, ptr %6, i64 4
  %33 = getelementptr inbounds nuw i8, ptr %6, i64 8
  br label %41

34:                                               ; preds = %41
  %35 = add nuw nsw i32 %.030, 1
  %36 = load ptr, ptr %24, align 8
  call void @llvm.lifetime.start.p0(i64 24, ptr nonnull %4) #21
  store i32 -1, ptr %4, align 8
  store i32 -1, ptr %25, align 4
  call void @llvm.memset.p0.i64(ptr noundef nonnull align 8 dereferenceable(16) %26, i8 0, i64 16, i1 false)
  %37 = load ptr, ptr %36, align 8
  %38 = getelementptr inbounds nuw i8, ptr %37, i64 128
  %39 = load ptr, ptr %38, align 8
  %40 = call noundef i32 %39(ptr noundef align 8 dereferenceable_or_null(80) %36, ptr noundef nonnull align 8 dereferenceable(24) %4)
  %.not = icmp slt i32 %35, %40
  call void @llvm.lifetime.end.p0(i64 24, ptr nonnull %4) #21
  br i1 %.not, label %41, label %_ZNK11QModelIndex7isValidEv.exit.thread, !llvm.loop !24

41:                                               ; preds = %.lr.ph, %34
  %.030 = phi i32 [ 0, %.lr.ph ], [ %35, %34 ]
  call void @llvm.lifetime.start.p0(i64 24, ptr nonnull %5) #21
  %42 = load ptr, ptr %24, align 8
  call void @llvm.lifetime.start.p0(i64 24, ptr nonnull %6) #21
  store i32 -1, ptr %6, align 8
  store i32 -1, ptr %32, align 4
  call void @llvm.memset.p0.i64(ptr noundef nonnull align 8 dereferenceable(16) %33, i8 0, i64 16, i1 false)
  %43 = load ptr, ptr %42, align 8
  %44 = getelementptr inbounds nuw i8, ptr %43, i64 96
  %45 = load ptr, ptr %44, align 8
  call void %45(ptr dead_on_unwind nonnull writable sret(%class.QModelIndex) align 8 %5, ptr noundef align 8 dereferenceable_or_null(16) %42, i32 noundef %18, i32 noundef %.030, ptr noundef nonnull align 8 dereferenceable(24) %6)
  %46 = call noundef zeroext i1 @_ZN9UatDialog24trySetErrorHintFromFieldERK11QModelIndex(ptr noundef align 8 dereferenceable_or_null(120) %0, ptr noundef nonnull align 8 dereferenceable(24) %5)
  call void @llvm.lifetime.end.p0(i64 24, ptr nonnull %6) #21
  call void @llvm.lifetime.end.p0(i64 24, ptr nonnull %5) #21
  br i1 %46, label %.thread, label %34

_ZNK11QModelIndex7isValidEv.exit.thread:          ; preds = %34, %23, %3
  %47 = load i32, ptr %2, align 8
  %48 = icmp sgt i32 %47, -1
  %49 = getelementptr inbounds nuw i8, ptr %2, i64 4
  %50 = load i32, ptr %49, align 4
  %51 = icmp sgt i32 %50, -1
  %or.cond25 = select i1 %48, i1 %51, i1 false
  %52 = getelementptr inbounds nuw i8, ptr %2, i64 16
  %53 = load ptr, ptr %52, align 8
  %54 = icmp ne ptr %53, null
  %or.cond28 = select i1 %or.cond25, i1 %54, i1 false
  br i1 %or.cond28, label %55, label %_ZNK11QModelIndex7isValidEv.exit15.thread

55:                                               ; preds = %_ZNK11QModelIndex7isValidEv.exit.thread
  %56 = call noundef zeroext i1 @_ZN9UatDialog24trySetErrorHintFromFieldERK11QModelIndex(ptr noundef align 8 dereferenceable_or_null(120) %0, ptr noundef align 8 dereferenceable(24) %2)
  br i1 %56, label %.thread, label %_ZNK11QModelIndex7isValidEv.exit15.thread

_ZNK11QModelIndex7isValidEv.exit15.thread:        ; preds = %_ZNK11QModelIndex7isValidEv.exit.thread, %55
  %57 = getelementptr inbounds nuw i8, ptr %0, i64 72
  %58 = load ptr, ptr %57, align 8
  %59 = getelementptr inbounds nuw i8, ptr %58, i64 16
  %60 = load ptr, ptr %59, align 8
  call void @_ZN6QLabel5clearEv(ptr noundef align 8 dereferenceable_or_null(40) %60)
  br label %.thread

.thread:                                          ; preds = %41, %21, %55, %15, %_ZNK11QModelIndex7isValidEv.exit15.thread
  ret void
}